; ModuleID = '31/1599.c'
source_filename = "31/1599.c"
target datalayout = "e-m:e-p270:32:32-p271:32:32-p272:64:64-i64:64-f80:128-n8:16:32:64-S128"
target triple = "x86_64-pc-linux-gnu"

%struct.student = type { [100 x i8], %struct.student* }

@p2 = common dso_local global %struct.student* null, align 8
@p1 = common dso_local global %struct.student* null, align 8
@n = common dso_local global i32 0, align 4
@.str = private unnamed_addr constant [4 x i8] c"end\00", align 1
@.str.1 = private unnamed_addr constant [4 x i8] c"%s\0A\00", align 1

; Function Attrs: noinline nounwind uwtable
define dso_local %struct.student* @create() #0 {
  %1 = alloca %struct.student*, align 8
  %2 = alloca %struct.student*, align 8
  %3 = call noalias i8* @malloc(i64 112) #4
  %4 = bitcast i8* %3 to %struct.student*
  store %struct.student* %4, %struct.student** @p2, align 8
  store %struct.student* %4, %struct.student** @p1, align 8
  %5 = load %struct.student*, %struct.student** @p1, align 8
  %6 = getelementptr inbounds %struct.student, %struct.student* %5, i32 0, i32 0
  %7 = getelementptr inbounds [100 x i8], [100 x i8]* %6, i64 0, i64 0
  %8 = call i32 (i8*, ...) bitcast (i32 (...)* @gets to i32 (i8*, ...)*)(i8* %7)
  store %struct.student* null, %struct.student** %2, align 8
  store i32 0, i32* @n, align 4
  br label %9

9:                                                ; preds = %28, %0
  %10 = load %struct.student*, %struct.student** @p1, align 8
  %11 = getelementptr inbounds %struct.student, %struct.student* %10, i32 0, i32 0
  %12 = getelementptr inbounds [100 x i8], [100 x i8]* %11, i64 0, i64 0
  %13 = call i32 @strcmp(i8* %12, i8* getelementptr inbounds ([4 x i8], [4 x i8]* @.str, i64 0, i64 0)) #5
  %14 = icmp ne i32 %13, 0
  br i1 %14, label %15, label %36

15:                                               ; preds = %9
  %16 = load i32, i32* @n, align 4
  %17 = add nsw i32 %16, 1
  store i32 %17, i32* @n, align 4
  %18 = load i32, i32* @n, align 4
  %19 = icmp eq i32 %18, 1
  br i1 %19, label %20, label %24

20:                                               ; preds = %15
  %21 = load %struct.student*, %struct.student** @p1, align 8
  store %struct.student* %21, %struct.student** %2, align 8
  %22 = load %struct.student*, %struct.student** @p1, align 8
  %23 = getelementptr inbounds %struct.student, %struct.student* %22, i32 0, i32 1
  store %struct.student* null, %struct.student** %23, align 8
  br label %28

24:                                               ; preds = %15
  %25 = load %struct.student*, %struct.student** @p2, align 8
  %26 = load %struct.student*, %struct.student** @p1, align 8
  %27 = getelementptr inbounds %struct.student, %struct.student* %26, i32 0, i32 1
  store %struct.student* %25, %struct.student** %27, align 8
  br label %28

28:                                               ; preds = %24, %20
  %29 = load %struct.student*, %struct.student** @p1, align 8
  store %struct.student* %29, %struct.student** @p2, align 8
  %30 = call noalias i8* @malloc(i64 112) #4
  %31 = bitcast i8* %30 to %struct.student*
  store %struct.student* %31, %struct.student** @p1, align 8
  %32 = load %struct.student*, %struct.student** @p1, align 8
  %33 = getelementptr inbounds %struct.student, %struct.student* %32, i32 0, i32 0
  %34 = getelementptr inbounds [100 x i8], [100 x i8]* %33, i64 0, i64 0
  %35 = call i32 (i8*, ...) bitcast (i32 (...)* @gets to i32 (i8*, ...)*)(i8* %34)
  br label %9

36:                                               ; preds = %9
  %37 = load %struct.student*, %struct.student** @p2, align 8
  %38 = load %struct.student*, %struct.student** @p1, align 8
  %39 = getelementptr inbounds %struct.student, %struct.student* %38, i32 0, i32 1
  store %struct.student* %37, %struct.student** %39, align 8
  store %struct.student* %37, %struct.student** %1, align 8
  %40 = load %struct.student*, %struct.student** %1, align 8
  ret %struct.student* %40
}

; Function Attrs: nounwind
declare dso_local noalias i8* @malloc(i64) #1

declare dso_local i32 @gets(...) #2

; Function Attrs: nounwind readonly
declare dso_local i32 @strcmp(i8*, i8*) #3

; Function Attrs: noinline nounwind uwtable
define dso_local void @main() #0 {
  %1 = alloca %struct.student*, align 8
  %2 = alloca %struct.student*, align 8
  %3 = call %struct.student* @create()
  store %struct.student* %3, %struct.student** %1, align 8
  %4 = load %struct.student*, %struct.student** %1, align 8
  store %struct.student* %4, %struct.student** %2, align 8
  br label %5

5:                                                ; preds = %13, %0
  %6 = load %struct.student*, %struct.student** %2, align 8
  %7 = getelementptr inbounds %struct.student, %struct.student* %6, i32 0, i32 0
  %8 = getelementptr inbounds [100 x i8], [100 x i8]* %7, i64 0, i64 0
  %9 = call i32 (i8*, ...) @printf(i8* getelementptr inbounds ([4 x i8], [4 x i8]* @.str.1, i64 0, i64 0), i8* %8)
  %10 = load %struct.student*, %struct.student** %2, align 8
  %11 = getelementptr inbounds %struct.student, %struct.student* %10, i32 0, i32 1
  %12 = load %struct.student*, %struct.student** %11, align 8
  store %struct.student* %12, %struct.student** %2, align 8
  br label %13

13:                                               ; preds = %5
  %14 = load %struct.student*, %struct.student** %2, align 8
  %15 = getelementptr inbounds %struct.student, %struct.student* %14, i32 0, i32 1
  %16 = load %struct.student*, %struct.student** %15, align 8
  %17 = icmp ne %struct.student* %16, null
  br i1 %17, label %5, label %18

18:                                               ; preds = %13
  %19 = load %struct.student*, %struct.student** %2, align 8
  %20 = getelementptr inbounds %struct.student, %struct.student* %19, i32 0, i32 1
  %21 = load %struct.student*, %struct.student** %20, align 8
  %22 = icmp eq %struct.student* %21, null
  br i1 %22, label %23, label %28

23:                                               ; preds = %18
  %24 = load %struct.student*, %struct.student** %2, align 8
  %25 = getelementptr inbounds %struct.student, %struct.student* %24, i32 0, i32 0
  %26 = getelementptr inbounds [100 x i8], [100 x i8]* %25, i64 0, i64 0
  %27 = call i32 (i8*, ...) @printf(i8* getelementptr inbounds ([4 x i8], [4 x i8]* @.str.1, i64 0, i64 0), i8* %26)
  br label %28

28:                                               ; preds = %23, %18
  ret void
}

declare dso_local i32 @printf(i8*, ...) #2


!llvm.module.flags = !{!0}
!llvm.ident = !{!1}

!0 = !{i32 1, !"wchar_size", i32 4}
!1 = !{!"clang version 10.0.0-4ubuntu1 "}
